target datalayout = "e-m:e-p270:32:32-p271:32:32-p272:64:64-i64:64-i128:128-f80:128-n8:16:32:64-S128"
target triple = "x86_64-unknown-linux-gnu"

%struct.MemoryRegion = type { %struct.Object, i8, i8, i8, i8, i8, i8, i8, i8, i8, i8, ptr, ptr, ptr, ptr, ptr, ptr, i32, i128, i64, ptr, i64, i8, i8, i8, i8, i8, ptr, i64, i32, %union.anon, %union.anon.0, %union.anon.1, ptr, i32, ptr, ptr, i8 }
%struct.Object = type { ptr, ptr, ptr, i32, ptr }
%union.anon = type { %struct.QTailQLink }
%struct.QTailQLink = type { ptr, ptr }
%union.anon.0 = type { %struct.QTailQLink }
%union.anon.1 = type { %struct.QTailQLink }
%struct.VFIOPCIDevice = type { %struct.PCIDevice, %struct.VFIODevice, %struct.VFIOINTx, i32, ptr, i64, i32, i64, ptr, i32, ptr, ptr, i32, i32, [6 x %struct.VFIOBAR], ptr, ptr, %struct.PCIHostDeviceAddress, %struct.QemuUUID, %struct.EventNotifier, %struct.EventNotifier, ptr, i32, i32, i32, i32, i32, i32, i32, i32, i32, i32, i32, i8, i8, i8, i8, i8, i8, i8, i8, i8, i8, i8, i8, i8, i8, i32, i8, i8, ptr, %struct.Notifier }
%struct.PCIDevice = type { %struct.DeviceState, i8, i8, ptr, ptr, ptr, ptr, ptr, i32, %struct.PCIReqIDCache, [64 x i8], [7 x %struct.PCIIORegion], %struct.AddressSpace, %struct.MemoryRegion, %struct.MemoryRegion, ptr, ptr, [3 x ptr], i8, i8, i32, i8, i32, ptr, ptr, ptr, ptr, ptr, ptr, %struct.MemoryRegion, %struct.MemoryRegion, %struct.MemoryRegion, ptr, i8, i32, i8, %struct.PCIExpressDevice, ptr, ptr, i32, i8, %struct.MemoryRegion, i32, ptr, ptr, ptr, ptr, ptr, i32 }
%struct.DeviceState = type { %struct.Object, ptr, ptr, i8, i8, i64, ptr, i32, i8, ptr, %struct.NamedGPIOListHead, %struct.NamedClockListHead, %struct.BusStateHead, i32, i32, i32, %struct.ResettableState, ptr, %struct.MemReentrancyGuard }
%struct.NamedGPIOListHead = type { ptr }
%struct.NamedClockListHead = type { ptr }
%struct.BusStateHead = type { ptr }
%struct.ResettableState = type { i32, i8, i8 }
%struct.MemReentrancyGuard = type { i8 }
%struct.PCIReqIDCache = type { ptr, i32 }
%struct.PCIIORegion = type { i64, i64, i8, ptr, ptr }
%struct.AddressSpace = type { %struct.rcu_head, ptr, ptr, ptr, i32, i32, ptr, %union.anon.4, %union.anon.5 }
%struct.rcu_head = type { ptr, ptr }
%union.anon.4 = type { %struct.QTailQLink }
%union.anon.5 = type { %struct.QTailQLink }
%struct.PCIExpressDevice = type { i8, i8, i8, i16, %struct.PCIEAERLog, i16, i16, i16, %struct.PCIESriovPF, %struct.PCIESriovVF }
%struct.PCIEAERLog = type { i16, i16, ptr }
%struct.PCIESriovPF = type { i16, [7 x i8], ptr, ptr }
%struct.PCIESriovVF = type { ptr, i16 }
%struct.VFIODevice = type { %struct.anon.6, %struct.anon.7, %struct.anon.8, ptr, ptr, ptr, ptr, ptr, i32, i32, i8, i8, i8, i8, i32, ptr, i32, i32, i32, ptr, ptr, i32, i8, i8 }
%struct.anon.6 = type { ptr, ptr }
%struct.anon.7 = type { ptr, ptr }
%struct.anon.8 = type { ptr, ptr }
%struct.VFIOINTx = type { i8, i8, i8, %struct.EventNotifier, %struct.EventNotifier, %struct.PCIINTxRoute, i32, ptr }
%struct.PCIINTxRoute = type { i32, i32 }
%struct.VFIOBAR = type { %struct.VFIORegion, ptr, i64, i8, i8, i8, %struct.anon.9 }
%struct.VFIORegion = type { ptr, i64, ptr, i64, i32, i32, ptr, i8 }
%struct.anon.9 = type { ptr }
%struct.PCIHostDeviceAddress = type { i32, i32, i32, i32 }
%struct.QemuUUID = type { %union.anon.10 }
%union.anon.10 = type { %struct.anon.11 }
%struct.anon.11 = type { i32, i16, i16, i8, i8, [6 x i8] }
%struct.EventNotifier = type { i32, i32, i8 }
%struct.Notifier = type { ptr, %struct.anon.12 }
%struct.anon.12 = type { ptr, ptr }
%struct.timeval = type { i64, i64 }

@trace_events_enabled_count = external global i32, align 4
@message_with_timestamp = external global i8, align 1
@qemu_loglevel = external global i32, align 4
@.str.42 = private unnamed_addr constant [10 x i8] c"vfio %s: \00", align 1
@_TRACE_VFIO_INTX_UPDATE_DSTATE = external global i16, align 2
@.str.222 = private unnamed_addr constant [56 x i8] c"%d@%zu.%06zu:vfio_intx_update  (%s) IRQ moved %d -> %d\0A\00", align 1
@.str.223 = private unnamed_addr constant [43 x i8] c"vfio_intx_update  (%s) IRQ moved %d -> %d\0A\00", align 1

; Function Attrs: nounwind sspstrong uwtable
define internal zeroext i1 @qemu_loglevel_mask(i32 noundef %mask) #0 {
entry:
  %mask.addr = alloca i32, align 4
  store i32 %mask, ptr %mask.addr, align 4
  %0 = load i32, ptr @qemu_loglevel, align 4
  %1 = load i32, ptr %mask.addr, align 4
  %and = and i32 %0, %1
  %cmp = icmp ne i32 %and, 0
  ret i1 %cmp
}

; Function Attrs: nounwind sspstrong uwtable
define internal void @_nocheck__trace_vfio_intx_update(ptr noundef %name, i32 noundef %new_irq, i32 noundef %target_irq) #0 {
entry:
  %name.addr = alloca ptr, align 8
  %new_irq.addr = alloca i32, align 4
  %target_irq.addr = alloca i32, align 4
  %_now = alloca %struct.timeval, align 8
  store ptr %name, ptr %name.addr, align 8
  store i32 %new_irq, ptr %new_irq.addr, align 4
  store i32 %target_irq, ptr %target_irq.addr, align 4
  %0 = load i32, ptr @trace_events_enabled_count, align 4
  %tobool = icmp ne i32 %0, 0
  %lnot = xor i1 %tobool, true
  %lnot1 = xor i1 %lnot, true
  %lnot.ext = zext i1 %lnot1 to i32
  %conv = sext i32 %lnot.ext to i64
  %tobool2 = icmp ne i64 %conv, 0
  br i1 %tobool2, label %land.lhs.true, label %if.end11

land.lhs.true:                                    ; preds = %entry
  %1 = load i16, ptr @_TRACE_VFIO_INTX_UPDATE_DSTATE, align 2
  %conv3 = zext i16 %1 to i32
  %tobool4 = icmp ne i32 %conv3, 0
  br i1 %tobool4, label %land.lhs.true5, label %if.end11

land.lhs.true5:                                   ; preds = %land.lhs.true
  %call = call zeroext i1 @qemu_loglevel_mask(i32 noundef 32768)
  br i1 %call, label %if.then, label %if.end11

if.then:                                          ; preds = %land.lhs.true5
  %2 = load i8, ptr @message_with_timestamp, align 1
  %tobool7 = trunc i8 %2 to i1
  br i1 %tobool7, label %if.then8, label %if.else

if.then8:                                         ; preds = %if.then
  %call9 = call i32 @gettimeofday(ptr noundef %_now, ptr noundef null) #16
  %call10 = call i32 @qemu_get_thread_id()
  %tv_sec = getelementptr inbounds %struct.timeval, ptr %_now, i32 0, i32 0
  %3 = load i64, ptr %tv_sec, align 8
  %tv_usec = getelementptr inbounds %struct.timeval, ptr %_now, i32 0, i32 1
  %4 = load i64, ptr %tv_usec, align 8
  %5 = load ptr, ptr %name.addr, align 8
  %6 = load i32, ptr %new_irq.addr, align 4
  %7 = load i32, ptr %target_irq.addr, align 4
  call void (ptr, ...) @qemu_log(ptr noundef @.str.222, i32 noundef %call10, i64 noundef %3, i64 noundef %4, ptr noundef %5, i32 noundef %6, i32 noundef %7)
  br label %if.end

if.else:                                          ; preds = %if.then
  %8 = load ptr, ptr %name.addr, align 8
  %9 = load i32, ptr %new_irq.addr, align 4
  %10 = load i32, ptr %target_irq.addr, align 4
  call void (ptr, ...) @qemu_log(ptr noundef @.str.223, ptr noundef %8, i32 noundef %9, i32 noundef %10)
  br label %if.end

if.end:                                           ; preds = %if.else, %if.then8
  br label %if.end11

if.end11:                                         ; preds = %if.end, %land.lhs.true5, %land.lhs.true, %entry
  ret void
}

; Function Attrs: nounwind sspstrong uwtable
define internal void @vfio_intx_enable_kvm(ptr noundef %vdev, ptr noundef %errp) #0 {
entry:
  %vdev.addr = alloca ptr, align 8
  %errp.addr = alloca ptr, align 8
  store ptr %vdev, ptr %vdev.addr, align 8
  store ptr %errp, ptr %errp.addr, align 8
  ret void
}

; Function Attrs: nounwind sspstrong uwtable
define internal void @vfio_intx_disable_kvm(ptr noundef %vdev) #0 {
entry:
  %vdev.addr = alloca ptr, align 8
  store ptr %vdev, ptr %vdev.addr, align 8
  ret void
}

; Function Attrs: nounwind sspstrong uwtable
define internal void @trace_vfio_intx_update(ptr noundef %name, i32 noundef %new_irq, i32 noundef %target_irq) #0 {
entry:
  %name.addr = alloca ptr, align 8
  %new_irq.addr = alloca i32, align 4
  %target_irq.addr = alloca i32, align 4
  store ptr %name, ptr %name.addr, align 8
  store i32 %new_irq, ptr %new_irq.addr, align 4
  store i32 %target_irq, ptr %target_irq.addr, align 4
  %0 = load ptr, ptr %name.addr, align 8
  %1 = load i32, ptr %new_irq.addr, align 4
  %2 = load i32, ptr %target_irq.addr, align 4
  call void @_nocheck__trace_vfio_intx_update(ptr noundef %0, i32 noundef %1, i32 noundef %2)
  ret void
}

; Function Attrs: nounwind sspstrong uwtable
define internal void @vfio_intx_update(ptr noundef %vdev, ptr noundef %route) #0 {
entry:
  %vdev.addr = alloca ptr, align 8
  %route.addr = alloca ptr, align 8
  %err = alloca ptr, align 8
  store ptr %vdev, ptr %vdev.addr, align 8
  store ptr %route, ptr %route.addr, align 8
  store ptr null, ptr %err, align 8
  %0 = load ptr, ptr %vdev.addr, align 8
  %vbasedev = getelementptr inbounds %struct.VFIOPCIDevice, ptr %0, i32 0, i32 1
  %name = getelementptr inbounds %struct.VFIODevice, ptr %vbasedev, i32 0, i32 6
  %1 = load ptr, ptr %name, align 8
  %2 = load ptr, ptr %vdev.addr, align 8
  %intx = getelementptr inbounds %struct.VFIOPCIDevice, ptr %2, i32 0, i32 2
  %route1 = getelementptr inbounds %struct.VFIOINTx, ptr %intx, i32 0, i32 5
  %irq = getelementptr inbounds %struct.PCIINTxRoute, ptr %route1, i32 0, i32 1
  %3 = load i32, ptr %irq, align 4
  %4 = load ptr, ptr %route.addr, align 8
  %irq2 = getelementptr inbounds %struct.PCIINTxRoute, ptr %4, i32 0, i32 1
  %5 = load i32, ptr %irq2, align 4
  call void @trace_vfio_intx_update(ptr noundef %1, i32 noundef %3, i32 noundef %5)
  %6 = load ptr, ptr %vdev.addr, align 8
  call void @vfio_intx_disable_kvm(ptr noundef %6)
  %7 = load ptr, ptr %vdev.addr, align 8
  %intx3 = getelementptr inbounds %struct.VFIOPCIDevice, ptr %7, i32 0, i32 2
  %route4 = getelementptr inbounds %struct.VFIOINTx, ptr %intx3, i32 0, i32 5
  %8 = load ptr, ptr %route.addr, align 8
  call void @llvm.memcpy.p0.p0.i64(ptr align 4 %route4, ptr align 4 %8, i64 8, i1 false)
  %9 = load ptr, ptr %route.addr, align 8
  %mode = getelementptr inbounds %struct.PCIINTxRoute, ptr %9, i32 0, i32 0
  %10 = load i32, ptr %mode, align 4
  %cmp = icmp ne i32 %10, 0
  br i1 %cmp, label %if.then, label %if.end

if.then:                                          ; preds = %entry
  br label %return

if.end:                                           ; preds = %entry
  %11 = load ptr, ptr %vdev.addr, align 8
  call void @vfio_intx_enable_kvm(ptr noundef %11, ptr noundef %err)
  %12 = load ptr, ptr %err, align 8
  %tobool = icmp ne ptr %12, null
  br i1 %tobool, label %if.then5, label %if.end8

if.then5:                                         ; preds = %if.end
  %13 = load ptr, ptr %err, align 8
  %14 = load ptr, ptr %vdev.addr, align 8
  %vbasedev6 = getelementptr inbounds %struct.VFIOPCIDevice, ptr %14, i32 0, i32 1
  %name7 = getelementptr inbounds %struct.VFIODevice, ptr %vbasedev6, i32 0, i32 6
  %15 = load ptr, ptr %name7, align 8
  call void (ptr, ptr, ...) @warn_reportf_err(ptr noundef %13, ptr noundef @.str.42, ptr noundef %15)
  br label %if.end8

if.end8:                                          ; preds = %if.then5, %if.end
  %16 = load ptr, ptr %vdev.addr, align 8
  %vbasedev9 = getelementptr inbounds %struct.VFIOPCIDevice, ptr %16, i32 0, i32 1
  call void @vfio_intx_eoi(ptr noundef %vbasedev9)
  br label %return

return:                                           ; preds = %if.end8, %if.then
  ret void
}