; Function Attrs: nounwind sspstrong uwtable
define internal fastcc void @vfio_intx_update(ptr noundef initializes((2788, 2792)) %vdev, ptr noundef readonly captures(none) %route) unnamed_addr #0 {
entry:
  %_now.i.i = alloca %struct.timeval, align 8
  %vbasedev = getelementptr inbounds nuw i8, ptr %vdev, i64 2608
  %name = getelementptr inbounds nuw i8, ptr %vdev, i64 2680
  %0 = load ptr, ptr %name, align 8
  %route1 = getelementptr inbounds nuw i8, ptr %vdev, i64 2788
  %irq = getelementptr inbounds nuw i8, ptr %vdev, i64 2792
  %1 = load i32, ptr %irq, align 4
  %irq2 = getelementptr inbounds nuw i8, ptr %route, i64 4
  %2 = load i32, ptr %irq2, align 4
  call void @llvm.lifetime.start.p0(i64 16, ptr nonnull %_now.i.i)
  %3 = load i32, ptr @trace_events_enabled_count, align 4
  %tobool.i.i = icmp ne i32 %3, 0
  %4 = load i16, ptr @_TRACE_VFIO_INTX_UPDATE_DSTATE, align 2
  %tobool4.i.i = icmp ne i16 %4, 0
  %or.cond.i.i = select i1 %tobool.i.i, i1 %tobool4.i.i, i1 false
  br i1 %or.cond.i.i, label %land.lhs.true5.i.i, label %trace_vfio_intx_update.exit

land.lhs.true5.i.i:                               ; preds = %entry
  %5 = load i32, ptr @qemu_loglevel, align 4
  %and.i.i.i = and i32 %5, 32768
  %cmp.i.not.i.i = icmp eq i32 %and.i.i.i, 0
  br i1 %cmp.i.not.i.i, label %trace_vfio_intx_update.exit, label %if.then.i.i

if.then.i.i:                                      ; preds = %land.lhs.true5.i.i
  %6 = load i8, ptr @message_with_timestamp, align 1
  %tobool7.i.i = trunc i8 %6 to i1
  br i1 %tobool7.i.i, label %if.then8.i.i, label %if.else.i.i

if.then8.i.i:                                     ; preds = %if.then.i.i
  %call9.i.i = call i32 @gettimeofday(ptr noundef nonnull %_now.i.i, ptr noundef null) #23
  %call10.i.i = tail call i32 @qemu_get_thread_id() #23
  %7 = load i64, ptr %_now.i.i, align 8
  %tv_usec.i.i = getelementptr inbounds nuw i8, ptr %_now.i.i, i64 8
  %8 = load i64, ptr %tv_usec.i.i, align 8
  tail call void (ptr, ...) @qemu_log(ptr noundef nonnull @.str.222, i32 noundef %call10.i.i, i64 noundef %7, i64 noundef %8, ptr noundef %0, i32 noundef %1, i32 noundef %2) #23
  br label %trace_vfio_intx_update.exit

if.else.i.i:                                      ; preds = %if.then.i.i
  tail call void (ptr, ...) @qemu_log(ptr noundef nonnull @.str.223, ptr noundef %0, i32 noundef %1, i32 noundef %2) #23
  br label %trace_vfio_intx_update.exit

trace_vfio_intx_update.exit:                      ; preds = %entry, %land.lhs.true5.i.i, %if.then8.i.i, %if.else.i.i
  call void @llvm.lifetime.end.p0(i64 16, ptr nonnull %_now.i.i)
  %9 = load i64, ptr %route, align 4
  store i64 %9, ptr %route1, align 4
  %10 = load i32, ptr %route, align 4
  %cmp.not = icmp eq i32 %10, 0
  br i1 %cmp.not, label %if.end8, label %return

if.end8:                                          ; preds = %trace_vfio_intx_update.exit
  tail call void @vfio_intx_eoi(ptr noundef nonnull %vbasedev)
  br label %return

return:                                           ; preds = %trace_vfio_intx_update.exit, %if.end8
  ret void
}